target datalayout = "e-m:e-p270:32:32-p271:32:32-p272:64:64-i64:64-i128:128-f80:128-n8:16:32:64-S128"
target triple = "x86_64-pc-linux-gnu"

%class.BinaryMagnitudeSeq = type { i64, ptr }

; Function Attrs: mustprogress nounwind uwtable
define hidden noundef i32 @_ZNK18BinaryMagnitudeSeq9min_levelEv(ptr noundef nonnull align 8 dereferenceable(16) %0) #1 align 2 {
  %2 = alloca i32, align 4
  %3 = alloca ptr, align 8
  %4 = alloca i32, align 4
  store ptr %0, ptr %3, align 8
  %5 = load ptr, ptr %3, align 8
  store i32 0, ptr %4, align 4
  br label %6

6:                                                ; preds = %20, %1
  %7 = load i32, ptr %4, align 4
  %8 = icmp slt i32 %7, 64
  br i1 %8, label %9, label %23

9:                                                ; preds = %6
  %10 = getelementptr inbounds %class.BinaryMagnitudeSeq, ptr %5, i32 0, i32 1
  %11 = load ptr, ptr %10, align 8
  %12 = load i32, ptr %4, align 4
  %13 = sext i32 %12 to i64
  %14 = getelementptr inbounds i64, ptr %11, i64 %13
  %15 = load i64, ptr %14, align 8
  %16 = icmp ne i64 %15, 0
  br i1 %16, label %17, label %19

17:                                               ; preds = %9
  %18 = load i32, ptr %4, align 4
  store i32 %18, ptr %2, align 4
  br label %24

19:                                               ; preds = %9
  br label %20

20:                                               ; preds = %19
  %21 = load i32, ptr %4, align 4
  %22 = add nsw i32 %21, 1
  store i32 %22, ptr %4, align 4
  br label %6, !llvm.loop !16

23:                                               ; preds = %6
  store i32 63, ptr %2, align 4
  br label %24

24:                                               ; preds = %23, %17
  %25 = load i32, ptr %2, align 4
  ret i32 %25
}