; Function Attrs: mustprogress nofree norecurse nosync nounwind willreturn memory(read, inaccessiblemem: none) uwtable
define hidden noundef i32 @_ZNK18BinaryMagnitudeSeq9min_levelEv(ptr nocapture noundef nonnull readonly align 8 dereferenceable(16) %0) local_unnamed_addr #3 align 2 {
  %2 = getelementptr inbounds i8, ptr %0, i64 8
  %3 = load ptr, ptr %2, align 8
  br label %4

4:                                                ; preds = %1, %7
  %indvars.iv = phi i64 [ 0, %1 ], [ %indvars.iv.next, %7 ]
  %5 = getelementptr inbounds i64, ptr %3, i64 %indvars.iv
  %6 = load i64, ptr %5, align 8
  %.not = icmp eq i64 %6, 0
  br i1 %.not, label %7, label %.split.loop.exit8

7:                                                ; preds = %4
  %indvars.iv.next = add nuw nsw i64 %indvars.iv, 1
  %exitcond.not = icmp eq i64 %indvars.iv.next, 64
  br i1 %exitcond.not, label %.split.loop.exit, label %4, !llvm.loop !16

.split.loop.exit8:                                ; preds = %4
  %8 = trunc nuw nsw i64 %indvars.iv to i32
  br label %.split.loop.exit

.split.loop.exit:                                 ; preds = %7, %.split.loop.exit8
  %.05 = phi i32 [ %8, %.split.loop.exit8 ], [ 63, %7 ]
  ret i32 %.05
}